; ModuleID = '9/193.c'
source_filename = "9/193.c"
target datalayout = "e-m:e-p270:32:32-p271:32:32-p272:64:64-i64:64-f80:128-n8:16:32:64-S128"
target triple = "x86_64-pc-linux-gnu"

%struct.patient = type { [10 x i8], i32 }

@.str = private unnamed_addr constant [3 x i8] c"%d\00", align 1
@.str.1 = private unnamed_addr constant [3 x i8] c"%s\00", align 1
@pat = common dso_local global [100 x %struct.patient] zeroinitializer, align 16
@.str.2 = private unnamed_addr constant [4 x i8] c"%s\0A\00", align 1

; Function Attrs: noinline nounwind uwtable
define dso_local i32 @main() #0 {
  %1 = alloca i32, align 4
  %2 = alloca i32, align 4
  %3 = alloca i32, align 4
  store i32 0, i32* %1, align 4
  %4 = call i32 (i8*, ...) @__isoc99_scanf(i8* getelementptr inbounds ([3 x i8], [3 x i8]* @.str, i64 0, i64 0), i32* %2)
  store i32 0, i32* %3, align 4
  br label %5

5:                                                ; preds = %21, %0
  %6 = load i32, i32* %3, align 4
  %7 = load i32, i32* %2, align 4
  %8 = icmp slt i32 %6, %7
  br i1 %8, label %9, label %24

9:                                                ; preds = %5
  %10 = load i32, i32* %3, align 4
  %11 = sext i32 %10 to i64
  %12 = getelementptr inbounds [100 x %struct.patient], [100 x %struct.patient]* @pat, i64 0, i64 %11
  %13 = getelementptr inbounds %struct.patient, %struct.patient* %12, i32 0, i32 0
  %14 = getelementptr inbounds [10 x i8], [10 x i8]* %13, i64 0, i64 0
  %15 = call i32 (i8*, ...) @__isoc99_scanf(i8* getelementptr inbounds ([3 x i8], [3 x i8]* @.str.1, i64 0, i64 0), i8* %14)
  %16 = load i32, i32* %3, align 4
  %17 = sext i32 %16 to i64
  %18 = getelementptr inbounds [100 x %struct.patient], [100 x %struct.patient]* @pat, i64 0, i64 %17
  %19 = getelementptr inbounds %struct.patient, %struct.patient* %18, i32 0, i32 1
  %20 = call i32 (i8*, ...) @__isoc99_scanf(i8* getelementptr inbounds ([3 x i8], [3 x i8]* @.str, i64 0, i64 0), i32* %19)
  br label %21

21:                                               ; preds = %9
  %22 = load i32, i32* %3, align 4
  %23 = add nsw i32 %22, 1
  store i32 %23, i32* %3, align 4
  br label %5

24:                                               ; preds = %5
  %25 = load i32, i32* %2, align 4
  %26 = sext i32 %25 to i64
  call void @qsort(i8* getelementptr inbounds ([100 x %struct.patient], [100 x %struct.patient]* @pat, i32 0, i32 0, i32 0, i32 0), i64 %26, i64 16, i32 (i8*, i8*)* @cmp)
  store i32 0, i32* %3, align 4
  br label %27

27:                                               ; preds = %38, %24
  %28 = load i32, i32* %3, align 4
  %29 = load i32, i32* %2, align 4
  %30 = icmp slt i32 %28, %29
  br i1 %30, label %31, label %41

31:                                               ; preds = %27
  %32 = load i32, i32* %3, align 4
  %33 = sext i32 %32 to i64
  %34 = getelementptr inbounds [100 x %struct.patient], [100 x %struct.patient]* @pat, i64 0, i64 %33
  %35 = getelementptr inbounds %struct.patient, %struct.patient* %34, i32 0, i32 0
  %36 = getelementptr inbounds [10 x i8], [10 x i8]* %35, i64 0, i64 0
  %37 = call i32 (i8*, ...) @printf(i8* getelementptr inbounds ([4 x i8], [4 x i8]* @.str.2, i64 0, i64 0), i8* %36)
  br label %38

38:                                               ; preds = %31
  %39 = load i32, i32* %3, align 4
  %40 = add nsw i32 %39, 1
  store i32 %40, i32* %3, align 4
  br label %27

41:                                               ; preds = %27
  ret i32 0
}

declare dso_local i32 @__isoc99_scanf(i8*, ...) #1

declare dso_local void @qsort(i8*, i64, i64, i32 (i8*, i8*)*) #1

; Function Attrs: noinline nounwind uwtable
define dso_local i32 @cmp(i8* %0, i8* %1) #0 {
  %3 = alloca i32, align 4
  %4 = alloca i8*, align 8
  %5 = alloca i8*, align 8
  %6 = alloca %struct.patient*, align 8
  %7 = alloca %struct.patient*, align 8
  store i8* %0, i8** %4, align 8
  store i8* %1, i8** %5, align 8
  %8 = load i8*, i8** %4, align 8
  %9 = bitcast i8* %8 to %struct.patient*
  store %struct.patient* %9, %struct.patient** %6, align 8
  %10 = load i8*, i8** %5, align 8
  %11 = bitcast i8* %10 to %struct.patient*
  store %struct.patient* %11, %struct.patient** %7, align 8
  %12 = load %struct.patient*, %struct.patient** %6, align 8
  %13 = getelementptr inbounds %struct.patient, %struct.patient* %12, i32 0, i32 1
  %14 = load i32, i32* %13, align 4
  %15 = icmp sge i32 %14, 60
  br i1 %15, label %16, label %22

16:                                               ; preds = %2
  %17 = load %struct.patient*, %struct.patient** %6, align 8
  %18 = getelementptr inbounds %struct.patient, %struct.patient* %17, i32 0, i32 1
  %19 = load i32, i32* %18, align 4
  %20 = icmp slt i32 %19, 60
  br i1 %20, label %21, label %22

21:                                               ; preds = %16
  store i32 -1, i32* %3, align 4
  br label %52

22:                                               ; preds = %16, %2
  %23 = load %struct.patient*, %struct.patient** %6, align 8
  %24 = getelementptr inbounds %struct.patient, %struct.patient* %23, i32 0, i32 1
  %25 = load i32, i32* %24, align 4
  %26 = icmp slt i32 %25, 60
  br i1 %26, label %27, label %33

27:                                               ; preds = %22
  %28 = load %struct.patient*, %struct.patient** %7, align 8
  %29 = getelementptr inbounds %struct.patient, %struct.patient* %28, i32 0, i32 1
  %30 = load i32, i32* %29, align 4
  %31 = icmp sge i32 %30, 60
  br i1 %31, label %32, label %33

32:                                               ; preds = %27
  store i32 1, i32* %3, align 4
  br label %52

33:                                               ; preds = %27, %22
  %34 = load %struct.patient*, %struct.patient** %6, align 8
  %35 = getelementptr inbounds %struct.patient, %struct.patient* %34, i32 0, i32 1
  %36 = load i32, i32* %35, align 4
  %37 = icmp sge i32 %36, 60
  br i1 %37, label %38, label %51

38:                                               ; preds = %33
  %39 = load %struct.patient*, %struct.patient** %7, align 8
  %40 = getelementptr inbounds %struct.patient, %struct.patient* %39, i32 0, i32 1
  %41 = load i32, i32* %40, align 4
  %42 = icmp sge i32 %41, 60
  br i1 %42, label %43, label %51

43:                                               ; preds = %38
  %44 = load %struct.patient*, %struct.patient** %7, align 8
  %45 = getelementptr inbounds %struct.patient, %struct.patient* %44, i32 0, i32 1
  %46 = load i32, i32* %45, align 4
  %47 = load %struct.patient*, %struct.patient** %6, align 8
  %48 = getelementptr inbounds %struct.patient, %struct.patient* %47, i32 0, i32 1
  %49 = load i32, i32* %48, align 4
  %50 = sub nsw i32 %46, %49
  store i32 %50, i32* %3, align 4
  br label %52

51:                                               ; preds = %38, %33
  store i32 0, i32* %3, align 4
  br label %52

52:                                               ; preds = %51, %43, %32, %21
  %53 = load i32, i32* %3, align 4
  ret i32 %53
}

declare dso_local i32 @printf(i8*, ...) #1


!llvm.module.flags = !{!0}
!llvm.ident = !{!1}

!0 = !{i32 1, !"wchar_size", i32 4}
!1 = !{!"clang version 10.0.0-4ubuntu1 "}
